target datalayout = "e-m:e-p270:32:32-p271:32:32-p272:64:64-i64:64-i128:128-f80:128-n8:16:32:64-S128"
target triple = "x86_64-pc-linux-gnu"

%struct._lv_table_t = type { %struct._lv_obj_t, i32, i32, ptr, ptr, ptr, i32, i32 }
%struct._lv_obj_t = type { ptr, ptr, ptr, ptr, ptr, %struct.lv_area_t, i32, i16, i16 }
%struct.lv_area_t = type { i32, i32, i32, i32 }
%struct._lv_table_cell_t = type { i32, ptr, [1 x i8] }

; Function Attrs: inlinehint nounwind uwtable
define internal zeroext i1 @is_cell_empty(ptr noundef %0) #4 {
  %2 = alloca ptr, align 8
  store ptr %0, ptr %2, align 8, !tbaa !37
  %3 = load ptr, ptr %2, align 8, !tbaa !37
  %4 = icmp eq ptr %3, null
  ret i1 %4
}

; Function Attrs: nounwind uwtable
define void @lv_table_set_cell_ctrl(ptr noundef %0, i32 noundef %1, i32 noundef %2, i32 noundef %3) #0 {
  %5 = alloca ptr, align 8
  %6 = alloca i32, align 4
  %7 = alloca i32, align 4
  %8 = alloca i32, align 4
  %9 = alloca ptr, align 8
  %10 = alloca i32, align 4
  %11 = alloca i32, align 4
  store ptr %0, ptr %5, align 8, !tbaa !8
  store i32 %1, ptr %6, align 4, !tbaa !25
  store i32 %2, ptr %7, align 4, !tbaa !25
  store i32 %3, ptr %8, align 4, !tbaa !25
  br label %12

12:                                               ; preds = %4
  %13 = load ptr, ptr %5, align 8, !tbaa !8
  %14 = icmp ne ptr %13, null
  br i1 %14, label %19, label %15

15:                                               ; preds = %12
  br label %16

16:                                               ; preds = %15
  br label %17

17:                                               ; preds = %16
  br label %18

18:                                               ; preds = %17, %18
  br label %18

19:                                               ; preds = %12
  br label %20

20:                                               ; preds = %19
  call void @llvm.lifetime.start.p0(i64 8, ptr %9) #6
  %21 = load ptr, ptr %5, align 8, !tbaa !8
  store ptr %21, ptr %9, align 8, !tbaa !10
  %22 = load i32, ptr %7, align 4, !tbaa !25
  %23 = load ptr, ptr %9, align 8, !tbaa !10
  %24 = getelementptr inbounds nuw %struct._lv_table_t, ptr %23, i32 0, i32 1
  %25 = load i32, ptr %24, align 8, !tbaa !12
  %26 = icmp uge i32 %22, %25
  br i1 %26, label %27, label %31

27:                                               ; preds = %20
  %28 = load ptr, ptr %5, align 8, !tbaa !8
  %29 = load i32, ptr %7, align 4, !tbaa !25
  %30 = add i32 %29, 1
  call void @lv_table_set_column_count(ptr noundef %28, i32 noundef %30)
  br label %31

31:                                               ; preds = %27, %20
  %32 = load i32, ptr %6, align 4, !tbaa !25
  %33 = load ptr, ptr %9, align 8, !tbaa !10
  %34 = getelementptr inbounds nuw %struct._lv_table_t, ptr %33, i32 0, i32 2
  %35 = load i32, ptr %34, align 4, !tbaa !22
  %36 = icmp uge i32 %32, %35
  br i1 %36, label %37, label %41

37:                                               ; preds = %31
  %38 = load ptr, ptr %5, align 8, !tbaa !8
  %39 = load i32, ptr %6, align 4, !tbaa !25
  %40 = add i32 %39, 1
  call void @lv_table_set_row_count(ptr noundef %38, i32 noundef %40)
  br label %41

41:                                               ; preds = %37, %31
  call void @llvm.lifetime.start.p0(i64 4, ptr %10) #6
  %42 = load i32, ptr %6, align 4, !tbaa !25
  %43 = load ptr, ptr %9, align 8, !tbaa !10
  %44 = getelementptr inbounds nuw %struct._lv_table_t, ptr %43, i32 0, i32 1
  %45 = load i32, ptr %44, align 8, !tbaa !12
  %46 = mul i32 %42, %45
  %47 = load i32, ptr %7, align 4, !tbaa !25
  %48 = add i32 %46, %47
  store i32 %48, ptr %10, align 4, !tbaa !25
  %49 = load ptr, ptr %9, align 8, !tbaa !10
  %50 = getelementptr inbounds nuw %struct._lv_table_t, ptr %49, i32 0, i32 3
  %51 = load ptr, ptr %50, align 8, !tbaa !26
  %52 = load i32, ptr %10, align 4, !tbaa !25
  %53 = zext i32 %52 to i64
  %54 = getelementptr inbounds nuw ptr, ptr %51, i64 %53
  %55 = load ptr, ptr %54, align 8, !tbaa !27
  %56 = call zeroext i1 @is_cell_empty(ptr noundef %55)
  br i1 %56, label %57, label %118

57:                                               ; preds = %41
  %58 = call ptr @lv_malloc(i64 noundef 25)
  %59 = load ptr, ptr %9, align 8, !tbaa !10
  %60 = getelementptr inbounds nuw %struct._lv_table_t, ptr %59, i32 0, i32 3
  %61 = load ptr, ptr %60, align 8, !tbaa !26
  %62 = load i32, ptr %10, align 4, !tbaa !25
  %63 = zext i32 %62 to i64
  %64 = getelementptr inbounds nuw ptr, ptr %61, i64 %63
  store ptr %58, ptr %64, align 8, !tbaa !27
  br label %65

65:                                               ; preds = %57
  %66 = load ptr, ptr %9, align 8, !tbaa !10
  %67 = getelementptr inbounds nuw %struct._lv_table_t, ptr %66, i32 0, i32 3
  %68 = load ptr, ptr %67, align 8, !tbaa !26
  %69 = load i32, ptr %10, align 4, !tbaa !25
  %70 = zext i32 %69 to i64
  %71 = getelementptr inbounds nuw ptr, ptr %68, i64 %70
  %72 = load ptr, ptr %71, align 8, !tbaa !27
  %73 = icmp ne ptr %72, null
  br i1 %73, label %80, label %74

74:                                               ; preds = %65
  br label %75

75:                                               ; preds = %74
  br label %76

76:                                               ; preds = %75
  br label %77

77:                                               ; preds = %76
  br label %78

78:                                               ; preds = %79, %77
  br label %79

79:                                               ; preds = %78
  br label %78

80:                                               ; preds = %65
  br label %81

81:                                               ; preds = %80
  br label %82

82:                                               ; preds = %81
  %83 = load ptr, ptr %9, align 8, !tbaa !10
  %84 = getelementptr inbounds nuw %struct._lv_table_t, ptr %83, i32 0, i32 3
  %85 = load ptr, ptr %84, align 8, !tbaa !26
  %86 = load i32, ptr %10, align 4, !tbaa !25
  %87 = zext i32 %86 to i64
  %88 = getelementptr inbounds nuw ptr, ptr %85, i64 %87
  %89 = load ptr, ptr %88, align 8, !tbaa !27
  %90 = icmp eq ptr %89, null
  br i1 %90, label %91, label %92

91:                                               ; preds = %82
  store i32 1, ptr %11, align 4
  br label %130

92:                                               ; preds = %82
  %93 = load ptr, ptr %9, align 8, !tbaa !10
  %94 = getelementptr inbounds nuw %struct._lv_table_t, ptr %93, i32 0, i32 3
  %95 = load ptr, ptr %94, align 8, !tbaa !26
  %96 = load i32, ptr %10, align 4, !tbaa !25
  %97 = zext i32 %96 to i64
  %98 = getelementptr inbounds nuw ptr, ptr %95, i64 %97
  %99 = load ptr, ptr %98, align 8, !tbaa !27
  %100 = getelementptr inbounds nuw %struct._lv_table_cell_t, ptr %99, i32 0, i32 0
  store i32 0, ptr %100, align 8, !tbaa !47
  %101 = load ptr, ptr %9, align 8, !tbaa !10
  %102 = getelementptr inbounds nuw %struct._lv_table_t, ptr %101, i32 0, i32 3
  %103 = load ptr, ptr %102, align 8, !tbaa !26
  %104 = load i32, ptr %10, align 4, !tbaa !25
  %105 = zext i32 %104 to i64
  %106 = getelementptr inbounds nuw ptr, ptr %103, i64 %105
  %107 = load ptr, ptr %106, align 8, !tbaa !27
  %108 = getelementptr inbounds nuw %struct._lv_table_cell_t, ptr %107, i32 0, i32 1
  store ptr null, ptr %108, align 8, !tbaa !31
  %109 = load ptr, ptr %9, align 8, !tbaa !10
  %110 = getelementptr inbounds nuw %struct._lv_table_t, ptr %109, i32 0, i32 3
  %111 = load ptr, ptr %110, align 8, !tbaa !26
  %112 = load i32, ptr %10, align 4, !tbaa !25
  %113 = zext i32 %112 to i64
  %114 = getelementptr inbounds nuw ptr, ptr %111, i64 %113
  %115 = load ptr, ptr %114, align 8, !tbaa !27
  %116 = getelementptr inbounds nuw %struct._lv_table_cell_t, ptr %115, i32 0, i32 2
  %117 = getelementptr inbounds [1 x i8], ptr %116, i64 0, i64 0
  store i8 0, ptr %117, align 8, !tbaa !59
  br label %118

118:                                              ; preds = %92, %41
  %119 = load i32, ptr %8, align 4, !tbaa !25
  %120 = load ptr, ptr %9, align 8, !tbaa !10
  %121 = getelementptr inbounds nuw %struct._lv_table_t, ptr %120, i32 0, i32 3
  %122 = load ptr, ptr %121, align 8, !tbaa !26
  %123 = load i32, ptr %10, align 4, !tbaa !25
  %124 = zext i32 %123 to i64
  %125 = getelementptr inbounds nuw ptr, ptr %122, i64 %124
  %126 = load ptr, ptr %125, align 8, !tbaa !27
  %127 = getelementptr inbounds nuw %struct._lv_table_cell_t, ptr %126, i32 0, i32 0
  %128 = load i32, ptr %127, align 8, !tbaa !47
  %129 = or i32 %128, %119
  store i32 %129, ptr %127, align 8, !tbaa !47
  store i32 0, ptr %11, align 4
  br label %130

130:                                              ; preds = %118, %91
  call void @llvm.lifetime.end.p0(i64 4, ptr %10) #6
  call void @llvm.lifetime.end.p0(i64 8, ptr %9) #6
  %131 = load i32, ptr %11, align 4
  switch i32 %131, label %133 [
    i32 0, label %132
    i32 1, label %132
  ]

132:                                              ; preds = %130, %130
  ret void

133:                                              ; preds = %130
  unreachable
}